; Function Attrs: nounwind uwtable
define noalias nonnull ptr @l_List_toJson___at___private_Lean_Util_Paths_0__Lean_toJsonLeanPaths____x40_Lean_Util_Paths___hyg_55____spec__1(ptr noundef %0) local_unnamed_addr #0 {
  %2 = tail call ptr @lean_array_mk(ptr noundef %0) #4
  %3 = getelementptr i8, ptr %2, i64 8
  %.val.i = load i64, ptr %3, align 8, !tbaa !12
  %4 = tail call ptr @l_Array_mapMUnsafe_map___at___private_Lean_Util_Paths_0__Lean_toJsonLeanPaths____x40_Lean_Util_Paths___hyg_55____spec__3(i64 noundef %.val.i, i64 noundef 0, ptr noundef %2)
  tail call void @lean_inc_heartbeat() #4
  %5 = tail call noalias ptr @mi_malloc_small(i64 noundef 16) #4
  %6 = icmp eq ptr %5, null
  br i1 %6, label %7, label %l_Array_toJson___at___private_Lean_Util_Paths_0__Lean_toJsonLeanPaths____x40_Lean_Util_Paths___hyg_55____spec__2.exit

7:                                                ; preds = %1
  tail call void @lean_internal_panic_out_of_memory() #5
  unreachable

l_Array_toJson___at___private_Lean_Util_Paths_0__Lean_toJsonLeanPaths____x40_Lean_Util_Paths___hyg_55____spec__2.exit: ; preds = %1
  %8 = getelementptr inbounds nuw i8, ptr %5, i64 4
  store i32 1, ptr %5, align 4, !tbaa !8
  store i32 67174416, ptr %8, align 4
  %9 = getelementptr inbounds nuw i8, ptr %5, i64 8
  store ptr %4, ptr %9, align 8, !tbaa !4
  ret ptr %5
}